target datalayout = "e-m:e-p270:32:32-p271:32:32-p272:64:64-i64:64-i128:128-f80:128-n8:16:32:64-S128"
target triple = "x86_64-pc-linux-gnu"

%struct.diff_opt_t = type { i32, i32, i32, i32, i32, i32, i32, i32, i32, double, i32, i32, double, i8, i32, i32, i32, i32, i32, i32, i32, i32, ptr, ptr, i32, i64, i32, i64, i64, i32, i64, i64, [32 x i64], [32 x i64], [32 x i64], [32 x i64], [32 x i64], [32 x i64], [2 x ptr], [2 x ptr], [2 x %struct.h5tools_vol_info_t], [2 x %struct.h5tools_vfd_info_t], [2 x i8], [2 x i8], i64 }
%struct.h5tools_vol_info_t = type { i32, ptr, %union.anon }
%union.anon = type { ptr }
%struct.h5tools_vfd_info_t = type { i32, ptr, %union.anon.0 }
%union.anon.0 = type { ptr }

@.str.9 = private unnamed_addr constant [52 x i8] c"No common objects found. Files are not comparable.\0A\00", align 1
@.str.10 = private unnamed_addr constant [31 x i8] c"Use -v for a list of objects.\0A\00", align 1
@.str.11 = private unnamed_addr constant [34 x i8] c"--------------------------------\0A\00", align 1
@.str.12 = private unnamed_addr constant [33 x i8] c"Some objects are not comparable\0A\00", align 1
@.str.13 = private unnamed_addr constant [62 x i8] c"Use -c for a list of objects without details of differences.\0A\00", align 1
@.str.14 = private unnamed_addr constant [31 x i8] c"Use -c for a list of objects.\0A\00", align 1

; Function Attrs: nounwind uwtable
define dso_local void @print_info(ptr noundef %0) #0 {
  %2 = alloca ptr, align 8
  store ptr %0, ptr %2, align 8, !tbaa !11
  %3 = load ptr, ptr %2, align 8, !tbaa !11
  %4 = getelementptr inbounds nuw %struct.diff_opt_t, ptr %3, i32 0, i32 0
  %5 = load i32, ptr %4, align 8, !tbaa !29
  %6 = icmp ne i32 %5, 0
  br i1 %6, label %12, label %7

7:                                                ; preds = %1
  %8 = load ptr, ptr %2, align 8, !tbaa !11
  %9 = getelementptr inbounds nuw %struct.diff_opt_t, ptr %8, i32 0, i32 26
  %10 = load i32, ptr %9, align 8, !tbaa !68
  %11 = icmp ne i32 %10, 0
  br i1 %11, label %12, label %13

12:                                               ; preds = %7, %1
  br label %51

13:                                               ; preds = %7
  %14 = load ptr, ptr %2, align 8, !tbaa !11
  %15 = getelementptr inbounds nuw %struct.diff_opt_t, ptr %14, i32 0, i32 15
  %16 = load i32, ptr %15, align 8, !tbaa !69
  %17 = icmp eq i32 %16, 0
  br i1 %17, label %18, label %27

18:                                               ; preds = %13
  %19 = call i32 (ptr, ...) @printf(ptr noundef @.str.9)
  %20 = load ptr, ptr %2, align 8, !tbaa !11
  %21 = getelementptr inbounds nuw %struct.diff_opt_t, ptr %20, i32 0, i32 2
  %22 = load i32, ptr %21, align 8, !tbaa !25
  %23 = icmp ne i32 %22, 0
  br i1 %23, label %26, label %24

24:                                               ; preds = %18
  %25 = call i32 (ptr, ...) @printf(ptr noundef @.str.10)
  br label %26

26:                                               ; preds = %24, %18
  br label %27

27:                                               ; preds = %26, %13
  %28 = load ptr, ptr %2, align 8, !tbaa !11
  %29 = getelementptr inbounds nuw %struct.diff_opt_t, ptr %28, i32 0, i32 16
  %30 = load i32, ptr %29, align 4, !tbaa !20
  %31 = icmp eq i32 %30, 1
  br i1 %31, label %32, label %51

32:                                               ; preds = %27
  %33 = load ptr, ptr %2, align 8, !tbaa !11
  %34 = getelementptr inbounds nuw %struct.diff_opt_t, ptr %33, i32 0, i32 4
  %35 = load i32, ptr %34, align 8, !tbaa !19
  %36 = icmp eq i32 %35, 0
  br i1 %36, label %37, label %50

37:                                               ; preds = %32
  %38 = call i32 (ptr, ...) @printf(ptr noundef @.str.11)
  %39 = call i32 (ptr, ...) @printf(ptr noundef @.str.12)
  %40 = call i32 (ptr, ...) @printf(ptr noundef @.str.11)
  %41 = load ptr, ptr %2, align 8, !tbaa !11
  %42 = getelementptr inbounds nuw %struct.diff_opt_t, ptr %41, i32 0, i32 2
  %43 = load i32, ptr %42, align 8, !tbaa !25
  %44 = icmp ne i32 %43, 0
  br i1 %44, label %45, label %47

45:                                               ; preds = %37
  %46 = call i32 (ptr, ...) @printf(ptr noundef @.str.13)
  br label %49

47:                                               ; preds = %37
  %48 = call i32 (ptr, ...) @printf(ptr noundef @.str.14)
  br label %49

49:                                               ; preds = %47, %45
  br label %50

50:                                               ; preds = %49, %32
  br label %51

51:                                               ; preds = %12, %50, %27
  ret void
}