; Function Attrs: nofree nounwind uwtable
define dso_local void @print_info(ptr noundef readonly captures(none) %0) local_unnamed_addr #3 {
  %2 = load i32, ptr %0, align 8, !tbaa !24
  %.not = icmp eq i32 %2, 0
  br i1 %.not, label %3, label %24

3:                                                ; preds = %1
  %4 = getelementptr inbounds nuw i8, ptr %0, i64 136
  %5 = load i32, ptr %4, align 8, !tbaa !63
  %.not7 = icmp eq i32 %5, 0
  br i1 %.not7, label %6, label %24

6:                                                ; preds = %3
  %7 = getelementptr inbounds nuw i8, ptr %0, i64 72
  %8 = load i32, ptr %7, align 8, !tbaa !64
  %9 = icmp eq i32 %8, 0
  br i1 %9, label %10, label %14

10:                                               ; preds = %6
  %puts = tail call i32 @puts(ptr nonnull dereferenceable(1) @str.5)
  %11 = getelementptr inbounds nuw i8, ptr %0, i64 8
  %12 = load i32, ptr %11, align 8, !tbaa !17
  %.not8 = icmp eq i32 %12, 0
  br i1 %.not8, label %13, label %14

13:                                               ; preds = %10
  %puts9 = tail call i32 @puts(ptr nonnull dereferenceable(1) @str.6)
  br label %14

14:                                               ; preds = %10, %13, %6
  %15 = getelementptr inbounds nuw i8, ptr %0, i64 76
  %16 = load i32, ptr %15, align 4, !tbaa !15
  %17 = icmp eq i32 %16, 1
  br i1 %17, label %18, label %24

18:                                               ; preds = %14
  %19 = getelementptr inbounds nuw i8, ptr %0, i64 16
  %20 = load i32, ptr %19, align 8, !tbaa !45
  %21 = icmp eq i32 %20, 0
  br i1 %21, label %.sink.split, label %24

.sink.split:                                      ; preds = %18
  %puts10 = tail call i32 @puts(ptr nonnull dereferenceable(1) @str.9)
  %puts11 = tail call i32 @puts(ptr nonnull dereferenceable(1) @str.8)
  %puts12 = tail call i32 @puts(ptr nonnull dereferenceable(1) @str.9)
  %22 = getelementptr inbounds nuw i8, ptr %0, i64 8
  %23 = load i32, ptr %22, align 8, !tbaa !17
  %.not13 = icmp eq i32 %23, 0
  %str.10.str.11 = select i1 %.not13, ptr @str.10, ptr @str.11
  %puts14 = tail call i32 @puts(ptr nonnull dereferenceable(1) %str.10.str.11)
  br label %24

24:                                               ; preds = %.sink.split, %18, %1, %3, %14
  ret void
}